; Function Attrs: mustprogress uwtable
define internal noundef zeroext i1 @_ZN2cvL17checkIntegerRangeILi4EEEbNS_3MatERNS_6Point_IiEEii(ptr noundef %0, ptr noundef nonnull writeonly align 4 captures(none) dereferenceable(8) %1, i32 noundef %2, i32 noundef %3) #3 personality ptr @__gxx_personality_v0 {
  %5 = alloca %"class.cv::Mat", align 8
  %6 = icmp slt i32 %3, %2
  br i1 %6, label %7, label %8

7:                                                ; preds = %4
  store i64 0, ptr %1, align 4
  br label %34

8:                                                ; preds = %4
  call void @llvm.lifetime.start.p0(i64 96, ptr nonnull %5) #27
  call void @_ZNK2cv3Mat7reshapeEii(ptr dead_on_unwind nonnull writable sret(%"class.cv::Mat") align 8 %5, ptr noundef nonnull align 8 dereferenceable(96) %0, i32 noundef 1, i32 noundef 0)
  %9 = getelementptr inbounds nuw i8, ptr %5, i64 8
  %10 = load i32, ptr %9, align 8, !tbaa !140
  %.not3748 = icmp slt i32 %10, 1
  br i1 %.not3748, label %.critedge41, label %.preheader.lr.ph

.preheader.lr.ph:                                 ; preds = %8
  %11 = getelementptr inbounds nuw i8, ptr %5, i64 12
  %12 = load i32, ptr %11, align 4, !tbaa !141
  %.not46 = icmp sgt i32 %12, 0
  %13 = getelementptr inbounds nuw i8, ptr %5, i64 16
  %14 = load ptr, ptr %13, align 8
  br i1 %.not46, label %.preheader.lr.ph.split.us, label %.critedge41

.preheader.lr.ph.split.us:                        ; preds = %.preheader.lr.ph
  %15 = getelementptr inbounds nuw i8, ptr %5, i64 72
  %16 = load ptr, ptr %15, align 8
  %17 = load i64, ptr %16, align 8, !tbaa !142
  %wide.trip.count61 = zext nneg i32 %10 to i64
  %wide.trip.count = zext nneg i32 %12 to i64
  br label %.preheader.us

.preheader.us:                                    ; preds = %..critedge39_crit_edge.us, %.preheader.lr.ph.split.us
  %indvars.iv58 = phi i64 [ %indvars.iv.next59, %..critedge39_crit_edge.us ], [ 0, %.preheader.lr.ph.split.us ]
  %18 = mul i64 %17, %indvars.iv58
  %19 = getelementptr inbounds nuw i8, ptr %14, i64 %18
  br label %20

20:                                               ; preds = %.preheader.us, %25
  %indvars.iv = phi i64 [ 0, %.preheader.us ], [ %indvars.iv.next, %25 ]
  %21 = getelementptr inbounds nuw i32, ptr %19, i64 %indvars.iv
  %22 = load i32, ptr %21, align 4, !tbaa !157
  %23 = icmp slt i32 %22, %2
  %24 = icmp sgt i32 %22, %3
  %or.cond.us = or i1 %23, %24
  br i1 %or.cond.us, label %.critedge, label %25

25:                                               ; preds = %20
  %indvars.iv.next = add nuw nsw i64 %indvars.iv, 1
  %exitcond.not = icmp eq i64 %indvars.iv.next, %wide.trip.count
  br i1 %exitcond.not, label %..critedge39_crit_edge.us, label %20, !llvm.loop !158

..critedge39_crit_edge.us:                        ; preds = %25
  %indvars.iv.next59 = add nuw nsw i64 %indvars.iv58, 1
  %exitcond62.not = icmp eq i64 %indvars.iv.next59, %wide.trip.count61
  br i1 %exitcond62.not, label %.critedge41, label %.preheader.us, !llvm.loop !159

.critedge:                                        ; preds = %20
  %26 = trunc nuw nsw i64 %indvars.iv58 to i32
  %27 = trunc nuw nsw i64 %indvars.iv to i32
  %28 = getelementptr inbounds nuw i8, ptr %1, i64 4
  store i32 %26, ptr %28, align 4, !tbaa !146
  %29 = load i32, ptr %0, align 8, !tbaa !34
  %30 = lshr i32 %29, 3
  %31 = and i32 %30, 511
  %32 = add nuw nsw i32 %31, 1
  %33 = udiv i32 %27, %32
  store i32 %33, ptr %1, align 4, !tbaa !148
  br label %.critedge41

.critedge41:                                      ; preds = %..critedge39_crit_edge.us, %.preheader.lr.ph, %8, %.critedge
  %.not3744 = phi i1 [ false, %.critedge ], [ true, %8 ], [ true, %.preheader.lr.ph ], [ true, %..critedge39_crit_edge.us ]
  call void @_ZN2cv3MatD1Ev(ptr noundef nonnull align 8 dereferenceable(96) %5) #27
  call void @llvm.lifetime.end.p0(i64 96, ptr nonnull %5) #27
  br label %34

34:                                               ; preds = %.critedge41, %7
  %.0 = phi i1 [ false, %7 ], [ %.not3744, %.critedge41 ]
  ret i1 %.0
}